ccollections
defaultdict
p0
(ccollections
Counter
p1
tp2
Rp3
S'a'
p4
g1
((dp5
S'a'
p6
I253
sS'c'
p7
I25284
sS'b'
p8
I13466
sS'e'
p9
I854
sS'd'
p10
I15888
sS'g'
p11
I12015
sS'f'
p12
I4957
sS'i'
p13
I15967
sS'h'
p14
I1722
sS'k'
p15
I10886
sS'j'
p16
I736
sS'm'
p17
I17467
sS'l'
p18
I56500
sS'o'
p19
I201
sS'n'
p20
I110038
sS'q'
p21
I363
sS'p'
p22
I9373
sS's'
p23
I33681
sS'r'
p24
I53997
sS'u'
p25
I7656
sS't'
p26
I83916
sS'w'
p27
I3649
sS'v'
p28
I27128
sS'y'
p29
I25302
sS'x'
p30
I904
sS'z'
p31
I1065
stp32
Rp33
sS'c'
p34
g1
((dp35
S'a'
p36
I30488
sS'c'
p37
I3555
sS'b'
p38
I112
sS'e'
p39
I31602
sS'd'
p40
I109
sS'g'
p41
I162
sS'f'
p42
I25
sS'i'
p43
I11907
sS'h'
p44
I31099
sS'k'
p45
I13047
sS'j'
p46
I9
sS'm'
p47
I156
sS'l'
p48
I8301
sS'o'
p49
I42072
sS'n'
p50
I101
sS'q'
p51
I152
sS'p'
p52
I64
sS's'
p53
I790
sS'r'
p54
I8577
sS'u'
p55
I7719
sS't'
p56
I17236
sS'w'
p57
I39
sS'v'
p58
I2
sS'y'
p59
I1980
sS'z'
p60
I43
stp61
Rp62
sg8
g1
((dp63
S'a'
p64
I13687
sS'c'
p65
I163
sS'b'
p66
I920
sS'e'
p67
I87093
sS'd'
p68
I65
sS'g'
p69
I15
sS'f'
p70
I24
sS'i'
p71
I7646
sS'h'
p72
I31
sS'k'
p73
I24
sS'j'
p74
I596
sS'm'
p75
I128
sS'l'
p76
I12211
sS'o'
p77
I14442
sS'n'
p78
I36
sS'q'
p79
I4
sS'p'
p80
I32
sS's'
p81
I1407
sS'r'
p82
I6687
sS'u'
p83
I14427
sS't'
p84
I469
sS'w'
p85
I44
sS'v'
p86
I226
sS'y'
p87
I6960
sS'x'
p88
I4
sS'z'
p89
I7
stp90
Rp91
sS'e'
p92
g1
((dp93
S'a'
p94
I47547
sS'c'
p95
I22765
sS'b'
p96
I2358
sS'e'
p97
I23252
sS'd'
p98
I21009
sS'g'
p99
I5970
sS'f'
p100
I7296
sS'i'
p101
I8726
sS'h'
p102
I1734
sS'k'
p103
I2038
sS'j'
p104
I177
sS'm'
p105
I17799
sS'l'
p106
I32144
sS'o'
p107
I5719
sS'n'
p108
I65475
sS'q'
p109
I1477
sS'p'
p110
I8890
sS's'
p111
I35944
sS'r'
p112
I112692
sS'u'
p113
I1252
sS't'
p114
I26366
sS'w'
p115
I7341
sS'v'
p116
I14893
sS'y'
p117
I12812
sS'x'
p118
I9581
sS'z'
p119
I616
stp120
Rp121
sS'd'
p122
g1
((dp123
S'a'
p124
I11130
sS'c'
p125
I192
sS'b'
p126
I236
sg92
I35624
sS'd'
p127
I2750
sS'g'
p128
I1636
sS'f'
p129
I227
sS'i'
p130
I19007
sS'h'
p131
I206
sS'k'
p132
I25
sS'j'
p133
I200
sS'm'
p134
I1057
sS'l'
p135
I2147
sS'o'
p136
I19458
sS'n'
p137
I407
sS'q'
p138
I62
sS'p'
p139
I130
sS's'
p140
I1244
sS'r'
p141
I5402
sS'u'
p142
I5780
sS't'
p143
I160
sS'w'
p144
I553
sS'v'
p145
I818
sS'y'
p146
I4303
sS'z'
p147
I26
stp148
Rp149
sS'g'
p150
g1
((dp151
S'a'
p152
I8785
sS'c'
p153
I5
sS'b'
p154
I72
sS'e'
p155
I23570
sS'd'
p156
I96
sS'g'
p157
I1503
sS'f'
p158
I65
sS'i'
p159
I8289
sS'h'
p160
I15580
sS'k'
p161
I9
sS'j'
p162
I5
sS'm'
p163
I433
sS'l'
p164
I3199
sS'o'
p165
I11670
sS'n'
p166
I3117
sS'q'
p167
I3
sS'p'
p168
I23
sS's'
p169
I417
sS'r'
p170
I10731
sS'u'
p171
I5297
sS't'
p172
I1241
sS'w'
p173
I117
sS'v'
p174
I6
sS'y'
p175
I1199
sS'z'
p176
I5
stp177
Rp178
sS'f'
p179
g1
((dp180
S'a'
p181
I10178
sS'c'
p182
I73
sS'b'
p183
I41
sS'e'
p184
I13380
sS'd'
p185
I28
sS'g'
p186
I127
sS'f'
p187
I8028
sS'i'
p188
I17017
sS'h'
p189
I11
sS'k'
p190
I11
sS'j'
p191
I2
sS'm'
p192
I42
sS'l'
p193
I4191
sS'o'
p194
I26618
sS'n'
p195
I30
sS'p'
p196
I27
sS's'
p197
I127
sS'r'
p198
I11892
sS'u'
p199
I4676
sS't'
p200
I4965
sS'w'
p201
I60
sS'y'
p202
I770
sS'x'
p203
I4
sS'z'
p204
I1
stp205
Rp206
sS'i'
p207
g1
((dp208
S'a'
p209
I12892
sS'c'
p210
I34173
sS'b'
p211
I3957
sS'e'
p212
I14718
sS'd'
p213
I14446
sg150
I17100
sS'f'
p214
I12019
sS'i'
p215
I99211
sS'h'
p216
I115
sS'k'
p217
I5278
sS'j'
p218
I125
sS'm'
p219
I17496
sS'l'
p220
I28696
sS'o'
p221
I31178
sS'n'
p222
I115362
sS'q'
p223
I376
sS'p'
p224
I4493
sS's'
p225
I42878
sS'r'
p226
I18253
sS'u'
p227
I620
sS't'
p228
I63431
sS'w'
p229
I47
sS'v'
p230
I15154
sS'y'
p231
I49
sS'x'
p232
I1105
sS'z'
p233
I3480
stp234
Rp235
sg160
g1
((dp236
S'a'
p237
I68935
sS'c'
p238
I81
sS'b'
p239
I357
sS'e'
p240
I173897
sS'd'
p241
I267
sS'g'
p242
I10
sS'f'
p243
I105
sS'i'
p244
I47061
sS'h'
p245
I105
sS'k'
p246
I19
sS'j'
p247
I4
sS'm'
p248
I594
sS'l'
p249
I826
sS'o'
p250
I31729
sS'n'
p251
I1410
sS'q'
p252
I34
sS'p'
p253
I37
sS's'
p254
I163
sS'r'
p255
I5576
sS'u'
p256
I5244
sS't'
p257
I8929
sS'w'
p258
I345
sS'v'
p259
I10
sS'y'
p260
I2859
sS'z'
p261
I14
stp262
Rp263
sg15
g1
((dp264
S'a'
p265
I1437
sS'c'
p266
I29
sS'b'
p267
I95
sS'e'
p268
I20605
sS'd'
p269
I46
sS'g'
p270
I74
sS'f'
p271
I142
sS'i'
p272
I5580
sS'h'
p273
I157
sS'k'
p274
I31
sS'j'
p275
I28
sS'm'
p276
I75
sS'l'
p277
I1098
sS'o'
p278
I729
sS'n'
p279
I5141
sS'p'
p280
I137
sS's'
p281
I910
sS'r'
p282
I309
sS'u'
p283
I337
sS't'
p284
I82
sS'w'
p285
I153
sS'v'
p286
I5
sS'y'
p287
I895
stp288
Rp289
sS'j'
p290
g1
((dp291
S'a'
p292
I1917
sS'c'
p293
I6
sS'b'
p294
I1
sS'e'
p295
I2627
sS'd'
p296
I4
sS'g'
p297
I1
sS'f'
p298
I8
sS'i'
p299
I481
sS'h'
p300
I1
sS'k'
p301
I6
sS'j'
p302
I1657
sS'm'
p303
I3
sS'o'
p304
I4096
sS'n'
p305
I5
sS'p'
p306
I8
sS's'
p307
I15
sS'r'
p308
I99
sS'u'
p309
I5462
sS't'
p310
I7
sS'w'
p311
I3
sS'v'
p312
I16
sS'z'
p313
I3
stp314
Rp315
sg105
g1
((dp316
S'a'
p317
I32480
sS'c'
p318
I862
sS'b'
p319
I4676
sS'e'
p320
I44655
sS'd'
p321
I38
sS'g'
p322
I47
sS'f'
p323
I319
sS'i'
p324
I17765
sS'h'
p325
I33
sS'k'
p326
I13
sS'j'
p327
I6
sS'm'
p328
I4456
sS'l'
p329
I192
sS'o'
p330
I21365
sS'n'
p331
I515
sS'q'
p332
I2
sS'p'
p333
I10987
sS's'
p334
I1775
sS'r'
p335
I1661
sS'u'
p336
I5363
sS't'
p337
I89
sS'w'
p338
I67
sS'v'
p339
I13
sS'y'
p340
I6724
sS'x'
p341
I1
sS'z'
p342
I5
stp343
Rp344
sS'l'
p345
g1
((dp346
S'a'
p347
I27676
sS'c'
p348
I559
sS'b'
p349
I463
sS'e'
p350
I46425
sS'd'
p351
I18051
sS'g'
p352
I194
sS'f'
p353
I3345
sS'i'
p354
I36005
sS'h'
p355
I144
sS'k'
p356
I2346
sS'j'
p357
I7
sS'm'
p358
I1716
sS'l'
p359
I42148
sS'o'
p360
I23721
sS'n'
p361
I288
sS'q'
p362
I5
sS'p'
p363
I1713
sS's'
p364
I3054
sS'r'
p365
I596
sS'u'
p366
I6300
sS't'
p367
I5971
sS'w'
p368
I933
sS'v'
p369
I1561
sS'y'
p370
I25316
sS'x'
p371
I2
sS'z'
p372
I65
stp373
Rp374
sS'o'
p375
g1
((dp376
S'a'
p377
I4179
sS'c'
p378
I8042
sS'b'
p379
I5413
sS'e'
p380
I1219
sS'd'
p381
I9683
sS'g'
p382
I5078
sS'f'
p383
I46108
sS'i'
p384
I5362
sS'h'
p385
I1625
sS'k'
p386
I5495
sS'j'
p387
I367
sS'm'
p388
I34197
sS'l'
p389
I19870
sS'o'
p390
I17328
sS'n'
p391
I84262
sS'q'
p392
I45
sS'p'
p393
I12936
sS's'
p394
I16302
sS'r'
p395
I69982
sS'u'
p396
I63802
sS't'
p397
I25284
sS'w'
p398
I24679
sS'v'
p399
I11667
sS'y'
p400
I2309
sS'x'
p401
I891
sS'z'
p402
I339
stp403
Rp404
sg20
g1
((dp405
S'a'
p406
I18163
sS'c'
p407
I17640
sS'b'
p408
I346
sS'e'
p409
I37937
sS'd'
p410
I74807
sS'g'
p411
I36580
sS'f'
p412
I2857
sS'i'
p413
I17252
sS'h'
p414
I520
sS'k'
p415
I7154
sS'j'
p416
I589
sS'm'
p417
I1285
sS'l'
p418
I3480
sS'o'
p419
I28393
sS'n'
p420
I8096
sS'q'
p421
I197
sS'p'
p422
I2830
sS's'
p423
I13779
sS'r'
p424
I448
sS'u'
p425
I4426
sS't'
p426
I50617
sS'w'
p427
I341
sS'v'
p428
I2869
sS'y'
p429
I6875
sS'x'
p430
I150
sS'z'
p431
I193
stp432
Rp433
sS'q'
p434
g1
((dp435
S'a'
p436
I75
sS'c'
p437
I6
sS'b'
p438
I1
sS'e'
p439
I4
sS'd'
p440
I5
sS'g'
p441
I1
sS'i'
p442
I47
sS'h'
p443
I1
sS'j'
p444
I1
sS'l'
p445
I1
sS'o'
p446
I3
sS's'
p447
I5
sS'u'
p448
I5943
sS'w'
p449
I1
sS'v'
p450
I8
sS'y'
p451
I1
sS'x'
p452
I2
sS'z'
p453
I1
stp454
Rp455
sg333
g1
((dp456
S'a'
p457
I16319
sS'c'
p458
I81
sS'b'
p459
I71
sS'e'
p460
I24550
sS'd'
p461
I68
sS'g'
p462
I144
sS'f'
p463
I90
sS'i'
p464
I6868
sS'h'
p465
I4668
sS'k'
p466
I50
sS'j'
p467
I9
sS'm'
p468
I520
sS'l'
p469
I15352
sS'o'
p470
I17205
sS'n'
p471
I46
sS'q'
p472
I1
sS'p'
p473
I6553
sS's'
p474
I1498
sS'r'
p475
I20315
sS'u'
p476
I5644
sS't'
p477
I3347
sS'w'
p478
I58
sS'v'
p479
I8
sS'y'
p480
I711
stp481
Rp482
sS's'
p483
g1
((dp484
g4
I17719
sS'c'
p485
I8259
sS'b'
p486
I572
sS'e'
p487
I48258
sS'd'
p488
I420
sS'g'
p489
I122
sS'f'
p490
I797
sS'i'
p491
I26174
sS'h'
p492
I23040
sS'k'
p493
I4019
sS'j'
p494
I16
sS'm'
p495
I4038
sS'l'
p496
I3623
sS'o'
p497
I24013
sS'n'
p498
I1099
sS'q'
p499
I462
sS'p'
p500
I10679
sS's'
p501
I19703
sS'r'
p502
I419
sS'u'
p503
I14200
sS't'
p504
I62875
sS'w'
p505
I1903
sS'v'
p506
I82
sS'y'
p507
I2304
sS'x'
p508
I5
sS'z'
p509
I14
stp510
Rp511
sS'r'
p512
g1
((dp513
S'a'
p514
I34936
sS'c'
p515
I5787
sS'b'
p516
I1673
sS'e'
p517
I83401
sS'd'
p518
I10242
sS'g'
p519
I5207
sS'f'
p520
I1745
sg207
I35315
sS'h'
p521
I896
sS'k'
p522
I6353
sS'j'
p523
I54
sS'm'
p524
I6800
sS'l'
p525
I5421
sS'o'
p526
I39727
sS'n'
p527
I9521
sS'q'
p528
I59
sS'p'
p529
I1936
sS's'
p530
I11163
sS'r'
p531
I7449
sS'u'
p532
I7846
sS't'
p533
I18241
sS'w'
p534
I845
sS'v'
p535
I3108
sS'y'
p536
I16038
sS'x'
p537
I46
sS'z'
p538
I106
stp539
Rp540
sg171
g1
((dp541
S'a'
p542
I6005
sS'c'
p543
I8344
sS'b'
p544
I3985
sS'e'
p545
I7761
sS'd'
p546
I6080
sS'g'
p547
I7405
sS'f'
p548
I952
sS'i'
p549
I4847
sS'h'
p550
I139
sS'k'
p551
I346
sS'j'
p552
I54
sS'm'
p553
I6306
sS'l'
p554
I19525
sS'o'
p555
I304
sS'n'
p556
I23855
sS'q'
p557
I27
sS'p'
p558
I8829
sS's'
p559
I26450
sS'r'
p560
I27926
sS'u'
p561
I32
sS't'
p562
I28610
sS'w'
p563
I36
sS'v'
p564
I133
sS'y'
p565
I1097
sS'x'
p566
I168
sS'z'
p567
I223
stp568
Rp569
sS't'
p570
g1
((dp571
S'a'
p572
I28877
sS'c'
p573
I3198
sS'b'
p574
I494
sS'e'
p575
I58934
sS'd'
p576
I122
sS'g'
p577
I163
sS'f'
p578
I411
sS'i'
p579
I52522
sS'h'
p580
I198813
sS'k'
p581
I32
sS'j'
p582
I17
sS'm'
p583
I1442
sS'l'
p584
I5761
sg375
I65642
sS'n'
p585
I563
sS'q'
p586
I1
sS'p'
p587
I194
sS's'
p588
I3747
sS'r'
p589
I21051
sS'u'
p590
I12909
sS't'
p591
I9314
sS'w'
p592
I4486
sS'v'
p593
I252
sS'y'
p594
I11516
sS'x'
p595
I6
sS'z'
p596
I302
stp597
Rp598
sS'w'
p599
g1
((dp600
S'a'
p601
I15935
sS'c'
p602
I66
sS'b'
p603
I177
sS'e'
p604
I18959
sS'd'
p605
I370
sS'g'
p606
I8
sS'f'
p607
I128
sS'i'
p608
I24231
sS'h'
p609
I24576
sS'k'
p610
I150
sS'j'
p611
I1
sS'm'
p612
I66
sS'l'
p613
I932
sS'o'
p614
I16275
sS'n'
p615
I4748
sS'q'
p616
I2
sS'p'
p617
I62
sS's'
p618
I1012
sg512
I1836
sS'u'
p619
I21
sS't'
p620
I389
sS'w'
p621
I349
sS'v'
p622
I9
sS'y'
p623
I265
stp624
Rp625
sS'v'
p626
g1
((dp627
S'a'
p628
I5549
sS'c'
p629
I14
sS'b'
p630
I21
sS'e'
p631
I65735
sS'd'
p632
I59
sS'g'
p633
I24
sS'i'
p634
I11782
sS'h'
p635
I8
sS'k'
p636
I1
sS'm'
p637
I3
sS'l'
p638
I26
sS'o'
p639
I4351
sS'n'
p640
I43
sS'q'
p641
I1
sS'p'
p642
I12
sS's'
p643
I94
sS'r'
p644
I35
sS'u'
p645
I116
sS't'
p646
I7
sS'w'
p647
I7
sS'v'
p648
I233
sS'y'
p649
I398
sS'z'
p650
I25
stp651
Rp652
sg370
g1
((dp653
S'a'
p654
I1359
sS'c'
p655
I583
sS'b'
p656
I962
sS'e'
p657
I9032
sS'd'
p658
I378
sS'g'
p659
I71
sS'f'
p660
I150
sS'i'
p661
I626
sS'h'
p662
I52
sS'k'
p663
I33
sS'j'
p664
I6
sS'm'
p665
I1135
sS'l'
p666
I787
sS'o'
p667
I19005
sS'n'
p668
I557
sS'q'
p669
I3
sS'p'
p670
I796
sS's'
p671
I3198
sS'r'
p672
I283
sS'u'
p673
I100
sS't'
p674
I1454
sS'w'
p675
I490
sS'v'
p676
I11
sS'y'
p677
I12
sS'x'
p678
I7
sS'z'
p679
I91
stp680
Rp681
sg118
g1
((dp682
S'a'
p683
I1271
sS'c'
p684
I977
sS'b'
p685
I13
sS'e'
p686
I662
sS'd'
p687
I1
sS'g'
p688
I10
sS'f'
p689
I26
sS'i'
p690
I1223
sS'h'
p691
I124
sS'm'
p692
I10
sS'l'
p693
I17
sS'o'
p694
I135
sS'n'
p695
I1
sS'q'
p696
I8
sS'p'
p697
I3136
sS's'
p698
I10
sS'u'
p699
I277
sS't'
p700
I2257
sS'w'
p701
I3
sS'v'
p702
I18
sS'y'
p703
I100
sS'x'
p704
I1228
stp705
Rp706
sS'z'
p707
g1
((dp708
S'a'
p709
I1144
sS'c'
p710
I5557
sS'b'
p711
I50
sS'e'
p712
I3330
sS'd'
p713
I4
sS'g'
p714
I24
sS'f'
p715
I1
sS'i'
p716
I702
sS'h'
p717
I17
sS'k'
p718
I40
sS'm'
p719
I43
sS'l'
p720
I151
sS'o'
p721
I509
sS'n'
p722
I24
sS'q'
p723
I8697
sS's'
p724
I11
sS'r'
p725
I6
sS'u'
p726
I82
sS't'
p727
I40
sS'w'
p728
I51
sS'v'
p729
I6
sS'y'
p730
I237
sS'x'
p731
I1
sS'z'
p732
I16053
stp733
Rp734
s.